; Function Attrs: nofree norecurse nosync nounwind memory(readwrite, inaccessiblemem: none) uwtable
define internal void @Blit1to4Key(ptr noundef readonly captures(none) %0) #1 {
  %2 = getelementptr inbounds nuw i8, ptr %0, i64 52
  %3 = load i32, ptr %2, align 4
  %4 = getelementptr inbounds nuw i8, ptr %0, i64 96
  %5 = load ptr, ptr %4, align 8
  %6 = getelementptr inbounds nuw i8, ptr %0, i64 116
  %7 = load i32, ptr %6, align 4
  %.not99 = icmp eq i32 %3, 0
  br i1 %.not99, label %._crit_edge, label %.lr.ph

.lr.ph:                                           ; preds = %1
  %8 = getelementptr inbounds nuw i8, ptr %0, i64 60
  %9 = load i32, ptr %8, align 4
  %10 = sdiv i32 %9, 4
  %11 = getelementptr inbounds nuw i8, ptr %0, i64 40
  %12 = load ptr, ptr %11, align 8
  %13 = getelementptr inbounds nuw i8, ptr %0, i64 28
  %14 = load i32, ptr %13, align 4
  %15 = getelementptr inbounds nuw i8, ptr %0, i64 8
  %16 = load ptr, ptr %15, align 8
  %17 = getelementptr inbounds nuw i8, ptr %0, i64 48
  %18 = load i32, ptr %17, align 8
  %19 = add nsw i32 %18, 7
  %20 = sdiv i32 %19, 8
  %21 = and i32 %18, 7
  %22 = sext i32 %14 to i64
  %23 = sext i32 %10 to i64
  br label %24

24:                                               ; preds = %.lr.ph, %108
  %.in = phi i32 [ %3, %.lr.ph ], [ %25, %108 ]
  %.073101 = phi ptr [ %16, %.lr.ph ], [ %109, %108 ]
  %.081100 = phi ptr [ %12, %.lr.ph ], [ %110, %108 ]
  %25 = add nsw i32 %.in, -1
  switch i32 %21, label %default.unreachable102 [
    i32 0, label %26
    i32 7, label %36
    i32 6, label %46
    i32 5, label %56
    i32 4, label %66
    i32 3, label %76
    i32 2, label %86
    i32 1, label %96
  ]

26:                                               ; preds = %24, %103
  %.889 = phi ptr [ %105, %103 ], [ %.081100, %24 ]
  %.8 = phi ptr [ %104, %103 ], [ %.073101, %24 ]
  %.7 = phi i32 [ %106, %103 ], [ %20, %24 ]
  %27 = load i8, ptr %.8, align 1
  %28 = zext i8 %27 to i32
  %.not91 = icmp eq i32 %7, %28
  br i1 %.not91, label %33, label %29

29:                                               ; preds = %26
  %30 = zext i8 %27 to i64
  %31 = getelementptr inbounds nuw i32, ptr %5, i64 %30
  %32 = load i32, ptr %31, align 4
  store i32 %32, ptr %.889, align 4
  br label %33

33:                                               ; preds = %29, %26
  %34 = getelementptr inbounds nuw i8, ptr %.8, i64 1
  %35 = getelementptr inbounds nuw i8, ptr %.889, i64 4
  br label %36

36:                                               ; preds = %33, %24
  %.182 = phi ptr [ %35, %33 ], [ %.081100, %24 ]
  %.174 = phi ptr [ %34, %33 ], [ %.073101, %24 ]
  %.0 = phi i32 [ %.7, %33 ], [ %20, %24 ]
  %37 = load i8, ptr %.174, align 1
  %38 = zext i8 %37 to i32
  %.not92 = icmp eq i32 %7, %38
  br i1 %.not92, label %43, label %39

39:                                               ; preds = %36
  %40 = zext i8 %37 to i64
  %41 = getelementptr inbounds nuw i32, ptr %5, i64 %40
  %42 = load i32, ptr %41, align 4
  store i32 %42, ptr %.182, align 4
  br label %43

43:                                               ; preds = %39, %36
  %44 = getelementptr inbounds nuw i8, ptr %.174, i64 1
  %45 = getelementptr inbounds nuw i8, ptr %.182, i64 4
  br label %46

46:                                               ; preds = %43, %24
  %.283 = phi ptr [ %45, %43 ], [ %.081100, %24 ]
  %.275 = phi ptr [ %44, %43 ], [ %.073101, %24 ]
  %.1 = phi i32 [ %.0, %43 ], [ %20, %24 ]
  %47 = load i8, ptr %.275, align 1
  %48 = zext i8 %47 to i32
  %.not93 = icmp eq i32 %7, %48
  br i1 %.not93, label %53, label %49

49:                                               ; preds = %46
  %50 = zext i8 %47 to i64
  %51 = getelementptr inbounds nuw i32, ptr %5, i64 %50
  %52 = load i32, ptr %51, align 4
  store i32 %52, ptr %.283, align 4
  br label %53

53:                                               ; preds = %49, %46
  %54 = getelementptr inbounds nuw i8, ptr %.275, i64 1
  %55 = getelementptr inbounds nuw i8, ptr %.283, i64 4
  br label %56

56:                                               ; preds = %53, %24
  %.384 = phi ptr [ %55, %53 ], [ %.081100, %24 ]
  %.376 = phi ptr [ %54, %53 ], [ %.073101, %24 ]
  %.2 = phi i32 [ %.1, %53 ], [ %20, %24 ]
  %57 = load i8, ptr %.376, align 1
  %58 = zext i8 %57 to i32
  %.not94 = icmp eq i32 %7, %58
  br i1 %.not94, label %63, label %59

59:                                               ; preds = %56
  %60 = zext i8 %57 to i64
  %61 = getelementptr inbounds nuw i32, ptr %5, i64 %60
  %62 = load i32, ptr %61, align 4
  store i32 %62, ptr %.384, align 4
  br label %63

63:                                               ; preds = %59, %56
  %64 = getelementptr inbounds nuw i8, ptr %.376, i64 1
  %65 = getelementptr inbounds nuw i8, ptr %.384, i64 4
  br label %66

66:                                               ; preds = %63, %24
  %.485 = phi ptr [ %65, %63 ], [ %.081100, %24 ]
  %.477 = phi ptr [ %64, %63 ], [ %.073101, %24 ]
  %.3 = phi i32 [ %.2, %63 ], [ %20, %24 ]
  %67 = load i8, ptr %.477, align 1
  %68 = zext i8 %67 to i32
  %.not95 = icmp eq i32 %7, %68
  br i1 %.not95, label %73, label %69

69:                                               ; preds = %66
  %70 = zext i8 %67 to i64
  %71 = getelementptr inbounds nuw i32, ptr %5, i64 %70
  %72 = load i32, ptr %71, align 4
  store i32 %72, ptr %.485, align 4
  br label %73

73:                                               ; preds = %69, %66
  %74 = getelementptr inbounds nuw i8, ptr %.477, i64 1
  %75 = getelementptr inbounds nuw i8, ptr %.485, i64 4
  br label %76

76:                                               ; preds = %73, %24
  %.586 = phi ptr [ %75, %73 ], [ %.081100, %24 ]
  %.578 = phi ptr [ %74, %73 ], [ %.073101, %24 ]
  %.4 = phi i32 [ %.3, %73 ], [ %20, %24 ]
  %77 = load i8, ptr %.578, align 1
  %78 = zext i8 %77 to i32
  %.not96 = icmp eq i32 %7, %78
  br i1 %.not96, label %83, label %79

79:                                               ; preds = %76
  %80 = zext i8 %77 to i64
  %81 = getelementptr inbounds nuw i32, ptr %5, i64 %80
  %82 = load i32, ptr %81, align 4
  store i32 %82, ptr %.586, align 4
  br label %83

83:                                               ; preds = %79, %76
  %84 = getelementptr inbounds nuw i8, ptr %.578, i64 1
  %85 = getelementptr inbounds nuw i8, ptr %.586, i64 4
  br label %86

86:                                               ; preds = %83, %24
  %.687 = phi ptr [ %85, %83 ], [ %.081100, %24 ]
  %.679 = phi ptr [ %84, %83 ], [ %.073101, %24 ]
  %.5 = phi i32 [ %.4, %83 ], [ %20, %24 ]
  %87 = load i8, ptr %.679, align 1
  %88 = zext i8 %87 to i32
  %.not97 = icmp eq i32 %7, %88
  br i1 %.not97, label %93, label %89

89:                                               ; preds = %86
  %90 = zext i8 %87 to i64
  %91 = getelementptr inbounds nuw i32, ptr %5, i64 %90
  %92 = load i32, ptr %91, align 4
  store i32 %92, ptr %.687, align 4
  br label %93

93:                                               ; preds = %89, %86
  %94 = getelementptr inbounds nuw i8, ptr %.679, i64 1
  %95 = getelementptr inbounds nuw i8, ptr %.687, i64 4
  br label %96

96:                                               ; preds = %93, %24
  %.788 = phi ptr [ %.081100, %24 ], [ %95, %93 ]
  %.780 = phi ptr [ %.073101, %24 ], [ %94, %93 ]
  %.6 = phi i32 [ %20, %24 ], [ %.5, %93 ]
  %97 = load i8, ptr %.780, align 1
  %98 = zext i8 %97 to i32
  %.not98 = icmp eq i32 %7, %98
  br i1 %.not98, label %103, label %99

99:                                               ; preds = %96
  %100 = zext i8 %97 to i64
  %101 = getelementptr inbounds nuw i32, ptr %5, i64 %100
  %102 = load i32, ptr %101, align 4
  store i32 %102, ptr %.788, align 4
  br label %103

103:                                              ; preds = %99, %96
  %104 = getelementptr inbounds nuw i8, ptr %.780, i64 1
  %105 = getelementptr inbounds nuw i8, ptr %.788, i64 4
  %106 = add nsw i32 %.6, -1
  %107 = icmp sgt i32 %.6, 1
  br i1 %107, label %26, label %108, !llvm.loop !24

default.unreachable102:                           ; preds = %24
  unreachable

108:                                              ; preds = %103
  %109 = getelementptr inbounds i8, ptr %104, i64 %22
  %110 = getelementptr inbounds i32, ptr %105, i64 %23
  %.not = icmp eq i32 %25, 0
  br i1 %.not, label %._crit_edge, label %24, !llvm.loop !25

._crit_edge:                                      ; preds = %108, %1
  ret void
}